target datalayout = "e-m:e-p270:32:32-p271:32:32-p272:64:64-i64:64-i128:128-f80:128-n8:16:32:64-S128"
target triple = "x86_64-pc-linux-gnu"

%struct.CodedBitstreamContext = type { ptr, ptr, ptr, ptr, i32, i32, i32, ptr, ptr, ptr, ptr, i64 }
%struct.VP9RawFrameHeader = type { i8, i8, i8, i8, i8, i8, i8, i8, i8, i8, i8, i8, i8, i8, i8, i8, [3 x i8], [4 x i8], i8, i8, i8, i8, [3 x i8], i16, i16, i8, i16, i16, i8, i8, i8, i8, i8, i8, [4 x i8], [4 x i8], [2 x i8], [2 x i8], i8, i8, i8, i8, i8, i8, [7 x i8], i8, [3 x i8], i8, i8, [8 x [4 x i8]], [8 x [4 x i8]], [8 x [4 x i8]], i8, i8, i16 }
%struct.CodedBitstreamVP9Context = type { i32, i16, i16, i16, i16, i32, i32, i8, i8, i32, [8 x %struct.VP9ReferenceFrameState] }
%struct.VP9ReferenceFrameState = type { i32, i32, i32, i32, i32 }

@.str.44 = private unnamed_addr constant [20 x i8] c"frame_width_minus_1\00", align 1
@.str.45 = private unnamed_addr constant [21 x i8] c"frame_height_minus_1\00", align 1

; Function Attrs: nounwind uwtable
define internal i32 @cbs_vp9_write_frame_size(ptr noundef %0, ptr noundef %1, ptr noundef %2) #0 {
  %4 = alloca i32, align 4
  %5 = alloca ptr, align 8
  %6 = alloca ptr, align 8
  %7 = alloca ptr, align 8
  %8 = alloca ptr, align 8
  %9 = alloca i32, align 4
  %10 = alloca i32, align 4
  store ptr %0, ptr %5, align 8, !tbaa !4
  store ptr %1, ptr %6, align 8, !tbaa !45
  store ptr %2, ptr %7, align 8, !tbaa !79
  call void @llvm.lifetime.start.p0(i64 8, ptr %8) #8
  %11 = load ptr, ptr %5, align 8, !tbaa !4
  %12 = getelementptr inbounds nuw %struct.CodedBitstreamContext, ptr %11, i32 0, i32 2
  %13 = load ptr, ptr %12, align 8, !tbaa !59
  store ptr %13, ptr %8, align 8, !tbaa !60
  call void @llvm.lifetime.start.p0(i64 4, ptr %9) #8
  br label %14

14:                                               ; preds = %3
  br label %15

15:                                               ; preds = %14
  %16 = load ptr, ptr %5, align 8, !tbaa !4
  %17 = load ptr, ptr %6, align 8, !tbaa !45
  %18 = load ptr, ptr %7, align 8, !tbaa !79
  %19 = getelementptr inbounds nuw %struct.VP9RawFrameHeader, ptr %18, i32 0, i32 23
  %20 = load i16, ptr %19, align 2, !tbaa !122
  %21 = zext i16 %20 to i32
  %22 = call i32 @ff_cbs_write_simple_unsigned(ptr noundef %16, ptr noundef %17, i32 noundef 16, ptr noundef @.str.44, i32 noundef %21)
  store i32 %22, ptr %9, align 4, !tbaa !11
  %23 = load i32, ptr %9, align 4, !tbaa !11
  %24 = icmp slt i32 %23, 0
  br i1 %24, label %25, label %27

25:                                               ; preds = %15
  %26 = load i32, ptr %9, align 4, !tbaa !11
  store i32 %26, ptr %4, align 4
  store i32 1, ptr %10, align 4
  br label %98

27:                                               ; preds = %15
  br label %28

28:                                               ; preds = %27
  br label %29

29:                                               ; preds = %28
  br label %30

30:                                               ; preds = %29
  br label %31

31:                                               ; preds = %30
  br label %32

32:                                               ; preds = %31
  br label %33

33:                                               ; preds = %32
  %34 = load ptr, ptr %5, align 8, !tbaa !4
  %35 = load ptr, ptr %6, align 8, !tbaa !45
  %36 = load ptr, ptr %7, align 8, !tbaa !79
  %37 = getelementptr inbounds nuw %struct.VP9RawFrameHeader, ptr %36, i32 0, i32 24
  %38 = load i16, ptr %37, align 2, !tbaa !123
  %39 = zext i16 %38 to i32
  %40 = call i32 @ff_cbs_write_simple_unsigned(ptr noundef %34, ptr noundef %35, i32 noundef 16, ptr noundef @.str.45, i32 noundef %39)
  store i32 %40, ptr %9, align 4, !tbaa !11
  %41 = load i32, ptr %9, align 4, !tbaa !11
  %42 = icmp slt i32 %41, 0
  br i1 %42, label %43, label %45

43:                                               ; preds = %33
  %44 = load i32, ptr %9, align 4, !tbaa !11
  store i32 %44, ptr %4, align 4
  store i32 1, ptr %10, align 4
  br label %98

45:                                               ; preds = %33
  br label %46

46:                                               ; preds = %45
  br label %47

47:                                               ; preds = %46
  br label %48

48:                                               ; preds = %47
  br label %49

49:                                               ; preds = %48
  %50 = load ptr, ptr %7, align 8, !tbaa !79
  %51 = getelementptr inbounds nuw %struct.VP9RawFrameHeader, ptr %50, i32 0, i32 23
  %52 = load i16, ptr %51, align 2, !tbaa !122
  %53 = zext i16 %52 to i32
  %54 = add nsw i32 %53, 1
  %55 = load ptr, ptr %8, align 8, !tbaa !60
  %56 = getelementptr inbounds nuw %struct.CodedBitstreamVP9Context, ptr %55, i32 0, i32 5
  store i32 %54, ptr %56, align 4, !tbaa !107
  %57 = load ptr, ptr %7, align 8, !tbaa !79
  %58 = getelementptr inbounds nuw %struct.VP9RawFrameHeader, ptr %57, i32 0, i32 24
  %59 = load i16, ptr %58, align 2, !tbaa !123
  %60 = zext i16 %59 to i32
  %61 = add nsw i32 %60, 1
  %62 = load ptr, ptr %8, align 8, !tbaa !60
  %63 = getelementptr inbounds nuw %struct.CodedBitstreamVP9Context, ptr %62, i32 0, i32 6
  store i32 %61, ptr %63, align 4, !tbaa !110
  %64 = load ptr, ptr %8, align 8, !tbaa !60
  %65 = getelementptr inbounds nuw %struct.CodedBitstreamVP9Context, ptr %64, i32 0, i32 5
  %66 = load i32, ptr %65, align 4, !tbaa !107
  %67 = add nsw i32 %66, 7
  %68 = ashr i32 %67, 3
  %69 = trunc i32 %68 to i16
  %70 = load ptr, ptr %8, align 8, !tbaa !60
  %71 = getelementptr inbounds nuw %struct.CodedBitstreamVP9Context, ptr %70, i32 0, i32 1
  store i16 %69, ptr %71, align 4, !tbaa !124
  %72 = load ptr, ptr %8, align 8, !tbaa !60
  %73 = getelementptr inbounds nuw %struct.CodedBitstreamVP9Context, ptr %72, i32 0, i32 6
  %74 = load i32, ptr %73, align 4, !tbaa !110
  %75 = add nsw i32 %74, 7
  %76 = ashr i32 %75, 3
  %77 = trunc i32 %76 to i16
  %78 = load ptr, ptr %8, align 8, !tbaa !60
  %79 = getelementptr inbounds nuw %struct.CodedBitstreamVP9Context, ptr %78, i32 0, i32 2
  store i16 %77, ptr %79, align 2, !tbaa !125
  %80 = load ptr, ptr %8, align 8, !tbaa !60
  %81 = getelementptr inbounds nuw %struct.CodedBitstreamVP9Context, ptr %80, i32 0, i32 1
  %82 = load i16, ptr %81, align 4, !tbaa !124
  %83 = zext i16 %82 to i32
  %84 = add nsw i32 %83, 7
  %85 = ashr i32 %84, 3
  %86 = trunc i32 %85 to i16
  %87 = load ptr, ptr %8, align 8, !tbaa !60
  %88 = getelementptr inbounds nuw %struct.CodedBitstreamVP9Context, ptr %87, i32 0, i32 3
  store i16 %86, ptr %88, align 4, !tbaa !126
  %89 = load ptr, ptr %8, align 8, !tbaa !60
  %90 = getelementptr inbounds nuw %struct.CodedBitstreamVP9Context, ptr %89, i32 0, i32 2
  %91 = load i16, ptr %90, align 2, !tbaa !125
  %92 = zext i16 %91 to i32
  %93 = add nsw i32 %92, 7
  %94 = ashr i32 %93, 3
  %95 = trunc i32 %94 to i16
  %96 = load ptr, ptr %8, align 8, !tbaa !60
  %97 = getelementptr inbounds nuw %struct.CodedBitstreamVP9Context, ptr %96, i32 0, i32 4
  store i16 %95, ptr %97, align 2, !tbaa !127
  store i32 0, ptr %4, align 4
  store i32 1, ptr %10, align 4
  br label %98

98:                                               ; preds = %49, %43, %25
  call void @llvm.lifetime.end.p0(i64 4, ptr %9) #8
  call void @llvm.lifetime.end.p0(i64 8, ptr %8) #8
  %99 = load i32, ptr %4, align 4
  ret i32 %99
}