; Function Attrs: nounwind uwtable
define internal fastcc range(i32 -2147483648, 1) i32 @cbs_vp9_write_frame_size(ptr noundef %0, ptr noundef %1, ptr noundef readonly captures(none) %2) unnamed_addr #0 {
  %4 = getelementptr inbounds nuw i8, ptr %0, i64 16
  %5 = load ptr, ptr %4, align 8, !tbaa !41
  %6 = getelementptr inbounds nuw i8, ptr %2, i64 30
  %7 = load i16, ptr %6, align 2, !tbaa !105
  %8 = zext i16 %7 to i32
  %9 = tail call i32 @ff_cbs_write_simple_unsigned(ptr noundef %0, ptr noundef %1, i32 noundef 16, ptr noundef nonnull @.str.44, i32 noundef %8) #8
  %10 = icmp slt i32 %9, 0
  br i1 %10, label %42, label %11

11:                                               ; preds = %3
  %12 = getelementptr inbounds nuw i8, ptr %2, i64 32
  %13 = load i16, ptr %12, align 2, !tbaa !106
  %14 = zext i16 %13 to i32
  %15 = tail call i32 @ff_cbs_write_simple_unsigned(ptr noundef nonnull %0, ptr noundef %1, i32 noundef 16, ptr noundef nonnull @.str.45, i32 noundef %14) #8
  %16 = icmp slt i32 %15, 0
  br i1 %16, label %42, label %17

17:                                               ; preds = %11
  %18 = load i16, ptr %6, align 2, !tbaa !105
  %19 = zext i16 %18 to i32
  %20 = add nuw nsw i32 %19, 1
  %21 = getelementptr inbounds nuw i8, ptr %5, i64 12
  store i32 %20, ptr %21, align 4, !tbaa !70
  %22 = load i16, ptr %12, align 2, !tbaa !106
  %23 = zext i16 %22 to i32
  %24 = add nuw nsw i32 %23, 1
  %25 = getelementptr inbounds nuw i8, ptr %5, i64 16
  store i32 %24, ptr %25, align 4, !tbaa !71
  %26 = add nuw nsw i32 %19, 8
  %27 = lshr i32 %26, 3
  %28 = trunc nuw nsw i32 %27 to i16
  %29 = getelementptr inbounds nuw i8, ptr %5, i64 4
  store i16 %28, ptr %29, align 4, !tbaa !107
  %30 = add nuw nsw i32 %23, 8
  %31 = lshr i32 %30, 3
  %32 = trunc nuw nsw i32 %31 to i16
  %33 = getelementptr inbounds nuw i8, ptr %5, i64 6
  store i16 %32, ptr %33, align 2, !tbaa !108
  %34 = add nuw nsw i32 %27, 7
  %35 = lshr i32 %34, 3
  %36 = trunc nuw nsw i32 %35 to i16
  %37 = getelementptr inbounds nuw i8, ptr %5, i64 8
  store i16 %36, ptr %37, align 4, !tbaa !109
  %38 = add nuw nsw i32 %31, 7
  %39 = lshr i32 %38, 3
  %40 = trunc nuw nsw i32 %39 to i16
  %41 = getelementptr inbounds nuw i8, ptr %5, i64 10
  store i16 %40, ptr %41, align 2, !tbaa !110
  br label %42

42:                                               ; preds = %11, %3, %17
  %.0 = phi i32 [ 0, %17 ], [ %9, %3 ], [ %15, %11 ]
  ret i32 %.0
}